(dp0
S'snow+bunny'
p1
I1
sVjenz
p2
I1
sVisland
p3
I1
sVpot
p4
I1
sVgorgeous
p5
I1
sVkind
p6
I1
sVlong
p7
I1
sS'weed'
p8
I1
sVganja
p9
I1
sVcannabis
p10
I1
sS'fokai'
p11
I1
sVchamorro
p12
I1
sVsexy
p13
I1
sS'flurb'
p14
I1
s.