(dp0
S'snow+bunny'
p1
c__builtin__
set
p2
((lp3
Vsexy
p4
aVgorgeous
p5
atp6
Rp7
sS'fokai'
p8
g2
((lp9
Vchamorro
p10
aVisland
p11
atp12
Rp13
sS'flurb'
p14
g2
((lp15
Vjenz
p16
atp17
Rp18
sS'weed'
p19
g2
((lp20
Vganja
p21
aVpot
p22
atp23
Rp24
s.